target datalayout = "e-m:e-p270:32:32-p271:32:32-p272:64:64-i64:64-i128:128-f80:128-n8:16:32:64-S128"
target triple = "x86_64-pc-linux-gnu"

@.str = private unnamed_addr constant [10 x i8] c"../hash.c\00", align 1
@environ = external global ptr, align 8
@ruby_single_main_ractor = external global ptr, align 8

; Function Attrs: nounwind sspstrong uwtable
define internal i64 @env_enc_str_new(ptr noundef %0, i64 noundef %1, ptr noundef %2) #0 {
  %4 = alloca ptr, align 8
  %5 = alloca i64, align 8
  %6 = alloca ptr, align 8
  %7 = alloca i64, align 8
  store ptr %0, ptr %4, align 8, !tbaa !14
  store i64 %1, ptr %5, align 8, !tbaa !7
  store ptr %2, ptr %6, align 8, !tbaa !99
  call void @llvm.lifetime.start.p0(i64 8, ptr %7) #28
  %8 = load ptr, ptr %4, align 8, !tbaa !14
  %9 = load i64, ptr %5, align 8, !tbaa !7
  %10 = load ptr, ptr %6, align 8, !tbaa !99
  %11 = call i64 @rb_external_str_new_with_enc(ptr noundef %8, i64 noundef %9, ptr noundef %10)
  store i64 %11, ptr %7, align 8, !tbaa !7
  %12 = load i64, ptr %7, align 8, !tbaa !7
  %13 = call i64 @rb_obj_freeze(i64 noundef %12)
  %14 = load i64, ptr %7, align 8, !tbaa !7
  call void @llvm.lifetime.end.p0(i64 8, ptr %7) #28
  ret i64 %14
}

; Function Attrs: inlinehint nounwind sspstrong uwtable
define internal ptr @env_encoding() #2 {
  %1 = call ptr @rb_locale_encoding()
  ret ptr %1
}

; Function Attrs: nounwind sspstrong uwtable
define internal i64 @env_str_new(ptr noundef %0, i64 noundef %1) #0 {
  %3 = alloca ptr, align 8
  %4 = alloca i64, align 8
  store ptr %0, ptr %3, align 8, !tbaa !14
  store i64 %1, ptr %4, align 8, !tbaa !7
  %5 = load ptr, ptr %3, align 8, !tbaa !14
  %6 = load i64, ptr %4, align 8, !tbaa !7
  %7 = call ptr @env_encoding()
  %8 = call i64 @env_enc_str_new(ptr noundef %5, i64 noundef %6, ptr noundef %7)
  ret i64 %8
}

; Function Attrs: inlinehint nounwind sspstrong uwtable
define internal zeroext i1 @rb_multi_ractor_p() #2 {
  %1 = alloca i1, align 1
  %2 = load ptr, ptr @ruby_single_main_ractor, align 8, !tbaa !171
  %3 = icmp ne ptr %2, null
  %4 = xor i1 %3, true
  %5 = xor i1 %4, true
  %6 = zext i1 %5 to i32
  %7 = sext i32 %6 to i64
  %8 = call i64 @llvm.expect.i64(i64 %7, i64 1)
  %9 = icmp ne i64 %8, 0
  br i1 %9, label %10, label %11

10:                                               ; preds = %0
  store i1 false, ptr %1, align 1
  br label %12

11:                                               ; preds = %0
  store i1 true, ptr %1, align 1
  br label %12

12:                                               ; preds = %11, %10
  %13 = load i1, ptr %1, align 1
  ret i1 %13
}

; Function Attrs: inlinehint nounwind sspstrong uwtable
define internal void @rb_vm_lock_leave(ptr noundef %0, ptr noundef %1, i32 noundef %2) #2 {
  %4 = alloca ptr, align 8
  %5 = alloca ptr, align 8
  %6 = alloca i32, align 4
  store ptr %0, ptr %4, align 8, !tbaa !95
  store ptr %1, ptr %5, align 8, !tbaa !14
  store i32 %2, ptr %6, align 4, !tbaa !16
  %7 = call zeroext i1 @rb_multi_ractor_p()
  br i1 %7, label %8, label %10

8:                                                ; preds = %3
  %9 = load ptr, ptr %4, align 8, !tbaa !95
  call void @rb_vm_lock_leave_body(ptr noundef %9)
  br label %10

10:                                               ; preds = %8, %3
  ret void
}

; Function Attrs: nounwind sspstrong uwtable
define internal i64 @env_str_new2(ptr noundef %0) #0 {
  %2 = alloca i64, align 8
  %3 = alloca ptr, align 8
  store ptr %0, ptr %3, align 8, !tbaa !14
  %4 = load ptr, ptr %3, align 8, !tbaa !14
  %5 = icmp ne ptr %4, null
  br i1 %5, label %7, label %6

6:                                                ; preds = %1
  store i64 4, ptr %2, align 8
  br label %12

7:                                                ; preds = %1
  %8 = load ptr, ptr %3, align 8, !tbaa !14
  %9 = load ptr, ptr %3, align 8, !tbaa !14
  %10 = call i64 @strlen(ptr noundef %9) #26
  %11 = call i64 @env_str_new(ptr noundef %8, i64 noundef %10)
  store i64 %11, ptr %2, align 8
  br label %12

12:                                               ; preds = %7, %6
  %13 = load i64, ptr %2, align 8
  ret i64 %13
}

; Function Attrs: inlinehint nounwind sspstrong uwtable
define internal void @rb_vm_lock_enter(ptr noundef %0, ptr noundef %1, i32 noundef %2) #2 {
  %4 = alloca ptr, align 8
  %5 = alloca ptr, align 8
  %6 = alloca i32, align 4
  store ptr %0, ptr %4, align 8, !tbaa !95
  store ptr %1, ptr %5, align 8, !tbaa !14
  store i32 %2, ptr %6, align 4, !tbaa !16
  %7 = call zeroext i1 @rb_multi_ractor_p()
  br i1 %7, label %8, label %10

8:                                                ; preds = %3
  %9 = load ptr, ptr %4, align 8, !tbaa !95
  call void @rb_vm_lock_enter_body(ptr noundef %9)
  br label %10

10:                                               ; preds = %8, %3
  ret void
}

; Function Attrs: nounwind sspstrong uwtable
define internal i64 @env_values() #0 {
  %1 = alloca i64, align 8
  %2 = alloca i32, align 4
  %3 = alloca ptr, align 8
  %4 = alloca ptr, align 8
  call void @llvm.lifetime.start.p0(i64 8, ptr %1) #28
  %5 = call i64 @rb_ary_new()
  store i64 %5, ptr %1, align 8, !tbaa !7
  call void @llvm.lifetime.start.p0(i64 4, ptr %2) #28
  call void @rb_vm_lock_enter(ptr noundef %2, ptr noundef @.str, i32 noundef 5553)
  call void @llvm.lifetime.start.p0(i64 8, ptr %3) #28
  %6 = load ptr, ptr @environ, align 8, !tbaa !101
  store ptr %6, ptr %3, align 8, !tbaa !101
  br label %7

7:                                                ; preds = %23, %0
  %8 = load ptr, ptr %3, align 8, !tbaa !101
  %9 = load ptr, ptr %8, align 8, !tbaa !14
  %10 = icmp ne ptr %9, null
  br i1 %10, label %11, label %26

11:                                               ; preds = %7
  call void @llvm.lifetime.start.p0(i64 8, ptr %4) #28
  %12 = load ptr, ptr %3, align 8, !tbaa !101
  %13 = load ptr, ptr %12, align 8, !tbaa !14
  %14 = call ptr @strchr(ptr noundef %13, i32 noundef 61) #26
  store ptr %14, ptr %4, align 8, !tbaa !14
  %15 = load ptr, ptr %4, align 8, !tbaa !14
  %16 = icmp ne ptr %15, null
  br i1 %16, label %17, label %23

17:                                               ; preds = %11
  %18 = load i64, ptr %1, align 8, !tbaa !7
  %19 = load ptr, ptr %4, align 8, !tbaa !14
  %20 = getelementptr i8, ptr %19, i64 1
  %21 = call i64 @env_str_new2(ptr noundef %20)
  %22 = call i64 @rb_ary_push(i64 noundef %18, i64 noundef %21)
  br label %23

23:                                               ; preds = %17, %11
  %24 = load ptr, ptr %3, align 8, !tbaa !101
  %25 = getelementptr ptr, ptr %24, i32 1
  store ptr %25, ptr %3, align 8, !tbaa !101
  call void @llvm.lifetime.end.p0(i64 8, ptr %4) #28
  br label %7, !llvm.loop !196

26:                                               ; preds = %7
  call void @llvm.lifetime.end.p0(i64 8, ptr %3) #28
  call void @rb_vm_lock_leave(ptr noundef %2, ptr noundef @.str, i32 noundef 5566)
  call void @llvm.lifetime.end.p0(i64 4, ptr %2) #28
  %27 = load i64, ptr %1, align 8, !tbaa !7
  call void @llvm.lifetime.end.p0(i64 8, ptr %1) #28
  ret i64 %27
}