; Function Attrs: nounwind sspstrong uwtable
define internal fastcc i64 @env_values() unnamed_addr #0 {
  %1 = alloca i32, align 4
  %2 = tail call i64 @rb_ary_new() #28
  call void @llvm.lifetime.start.p0(i64 4, ptr nonnull %1) #28
  %3 = load ptr, ptr @ruby_single_main_ractor, align 8, !tbaa !82
  %.not.i.i = icmp eq ptr %3, null
  br i1 %.not.i.i, label %4, label %rb_vm_lock_enter.exit

4:                                                ; preds = %0
  call void @rb_vm_lock_enter_body(ptr noundef nonnull %1) #28
  br label %rb_vm_lock_enter.exit

rb_vm_lock_enter.exit:                            ; preds = %0, %4
  %5 = load ptr, ptr @environ, align 8, !tbaa !89
  %6 = load ptr, ptr %5, align 8, !tbaa !91
  %.not10 = icmp eq ptr %6, null
  br i1 %.not10, label %._crit_edge, label %.lr.ph

.lr.ph:                                           ; preds = %rb_vm_lock_enter.exit, %17
  %7 = phi ptr [ %19, %17 ], [ %6, %rb_vm_lock_enter.exit ]
  %.011 = phi ptr [ %18, %17 ], [ %5, %rb_vm_lock_enter.exit ]
  %8 = call ptr @strchr(ptr noundef nonnull dereferenceable(1) %7, i32 noundef 61) #29
  %.not8 = icmp eq ptr %8, null
  br i1 %.not8, label %17, label %9

9:                                                ; preds = %.lr.ph
  %10 = getelementptr i8, ptr %8, i64 1
  %.not.i = icmp eq ptr %10, null
  br i1 %.not.i, label %env_str_new2.exit, label %11

11:                                               ; preds = %9
  %12 = call i64 @strlen(ptr noundef nonnull dereferenceable(1) %10) #29
  %13 = call ptr @rb_locale_encoding() #28
  %14 = call i64 @rb_external_str_new_with_enc(ptr noundef nonnull %10, i64 noundef %12, ptr noundef %13) #28
  %15 = call i64 @rb_obj_freeze(i64 noundef %14) #28
  br label %env_str_new2.exit

env_str_new2.exit:                                ; preds = %9, %11
  %.0.i = phi i64 [ %14, %11 ], [ 4, %9 ]
  %16 = call i64 @rb_ary_push(i64 noundef %2, i64 noundef %.0.i) #28
  br label %17

17:                                               ; preds = %env_str_new2.exit, %.lr.ph
  %18 = getelementptr i8, ptr %.011, i64 8
  %19 = load ptr, ptr %18, align 8, !tbaa !91
  %.not = icmp eq ptr %19, null
  br i1 %.not, label %._crit_edge, label %.lr.ph, !llvm.loop !173

._crit_edge:                                      ; preds = %17, %rb_vm_lock_enter.exit
  %20 = load ptr, ptr @ruby_single_main_ractor, align 8, !tbaa !82
  %.not.i.i9 = icmp eq ptr %20, null
  br i1 %.not.i.i9, label %21, label %rb_vm_lock_leave.exit

21:                                               ; preds = %._crit_edge
  call void @rb_vm_lock_leave_body(ptr noundef nonnull %1) #28
  br label %rb_vm_lock_leave.exit

rb_vm_lock_leave.exit:                            ; preds = %._crit_edge, %21
  call void @llvm.lifetime.end.p0(i64 4, ptr nonnull %1) #28
  ret i64 %2
}